target datalayout = "e-m:e-p270:32:32-p271:32:32-p272:64:64-i64:64-i128:128-f80:128-n8:16:32:64-S128"
target triple = "x86_64-unknown-linux-gnu"

%"class.hermes::ScopeMerger" = type { %"class.hermes::FunctionPass", %"class.llvh::DenseMap" }
%"class.hermes::FunctionPass" = type { %"class.hermes::Pass" }
%"class.hermes::Pass" = type { ptr, i32, %"class.llvh::StringRef" }
%"class.llvh::StringRef" = type { ptr, i64 }
%"class.llvh::DenseMap" = type <{ ptr, i32, i32, i32, [4 x i8] }>
%"class.hermes::Value" = type { i8, %"class.hermes::Type", %"class.llvh::SmallVector" }
%"class.hermes::Type" = type { i16, i16 }
%"class.llvh::SmallVector" = type { %"class.llvh::SmallVectorImpl", %"struct.llvh::SmallVectorStorage" }
%"class.llvh::SmallVectorImpl" = type { %"class.llvh::SmallVectorTemplateBase" }
%"class.llvh::SmallVectorTemplateBase" = type { %"class.llvh::SmallVectorTemplateCommon" }
%"class.llvh::SmallVectorTemplateCommon" = type { %"class.llvh::SmallVectorBase" }
%"class.llvh::SmallVectorBase" = type { ptr, i32, i32 }
%"struct.llvh::SmallVectorStorage" = type { [2 x %"struct.llvh::AlignedCharArrayUnion"] }
%"struct.llvh::AlignedCharArrayUnion" = type { %"struct.llvh::AlignedCharArray" }
%"struct.llvh::AlignedCharArray" = type { [8 x i8] }
%"class.std::shared_ptr" = type { %"class.std::__shared_ptr" }
%"class.std::__shared_ptr" = type { ptr, %"class.std::__shared_count" }
%"class.std::__shared_count" = type { ptr }
%"class.hermes::Identifier" = type { ptr }
%"struct.std::pair" = type { ptr, ptr }
%"struct.llvh::detail::DenseMapPair" = type { %"struct.std::pair" }
%"class.hermes::Function" = type { %"class.llvh::ilist_node_with_parent.22", %"class.hermes::Value", ptr, i8, ptr, %"class.llvh::iplist", %"class.llvh::SmallVector.26", %"class.hermes::Identifier", i32, i8, %"class.llvh::SMRange", i32, %"class.hermes::Identifier", ptr, i32, %"class.hermes::OptValue", [4 x i8], %"struct.hermes::LazySource", %"class.std::shared_ptr", ptr }
%"class.llvh::ilist_node_with_parent.22" = type { %"class.llvh::ilist_node.23" }
%"class.llvh::ilist_node.23" = type { %"class.llvh::ilist_node_impl.24" }
%"class.llvh::ilist_node_impl.24" = type { %"class.llvh::ilist_node_base" }
%"class.llvh::ilist_node_base" = type { ptr, ptr }
%"class.llvh::iplist" = type { %"class.llvh::iplist_impl" }
%"class.llvh::iplist_impl" = type { %"class.llvh::simple_ilist" }
%"class.llvh::simple_ilist" = type { %"class.llvh::ilist_sentinel" }
%"class.llvh::ilist_sentinel" = type { %"class.llvh::ilist_node_impl.25" }
%"class.llvh::ilist_node_impl.25" = type { %"class.llvh::ilist_node_base" }
%"class.llvh::SmallVector.26" = type { %"class.llvh::SmallVectorImpl.27", %"struct.llvh::SmallVectorStorage.30" }
%"class.llvh::SmallVectorImpl.27" = type { %"class.llvh::SmallVectorTemplateBase.28" }
%"class.llvh::SmallVectorTemplateBase.28" = type { %"class.llvh::SmallVectorTemplateCommon.29" }
%"class.llvh::SmallVectorTemplateCommon.29" = type { %"class.llvh::SmallVectorBase" }
%"struct.llvh::SmallVectorStorage.30" = type { [8 x %"struct.llvh::AlignedCharArrayUnion.31"] }
%"struct.llvh::AlignedCharArrayUnion.31" = type { %"struct.llvh::AlignedCharArray" }
%"class.llvh::SMRange" = type { %"class.llvh::SMLoc", %"class.llvh::SMLoc" }
%"class.llvh::SMLoc" = type { ptr }
%"class.hermes::OptValue" = type <{ i32, i8, [3 x i8] }>
%"struct.hermes::LazySource" = type <{ i32, i32, %"class.llvh::SMRange", i8, i8, [6 x i8] }>

; Function Attrs: mustprogress nounwind uwtable
define linkonce_odr hidden void @_ZN4llvh8DenseMapIPN6hermes9ScopeDescES3_NS_12DenseMapInfoIS3_EENS_6detail12DenseMapPairIS3_S3_EEE16setNumTombstonesEj(ptr noundef nonnull align 8 dereferenceable(20) %this, i32 noundef %Num) #0 comdat align 2 {
entry:
  %this.addr = alloca ptr, align 8
  %Num.addr = alloca i32, align 4
  store ptr %this, ptr %this.addr, align 8
  store i32 %Num, ptr %Num.addr, align 4
  %this1 = load ptr, ptr %this.addr, align 8
  %0 = load i32, ptr %Num.addr, align 4
  %NumTombstones = getelementptr inbounds %"class.llvh::DenseMap", ptr %this1, i32 0, i32 2
  store i32 %0, ptr %NumTombstones, align 4
  ret void
}

; Function Attrs: mustprogress nounwind uwtable
define linkonce_odr hidden void @_ZN4llvh8DenseMapIPN6hermes9ScopeDescES3_NS_12DenseMapInfoIS3_EENS_6detail12DenseMapPairIS3_S3_EEE13setNumEntriesEj(ptr noundef nonnull align 8 dereferenceable(20) %this, i32 noundef %Num) #0 comdat align 2 {
entry:
  %this.addr = alloca ptr, align 8
  %Num.addr = alloca i32, align 4
  store ptr %this, ptr %this.addr, align 8
  store i32 %Num, ptr %Num.addr, align 4
  %this1 = load ptr, ptr %this.addr, align 8
  %0 = load i32, ptr %Num.addr, align 4
  %NumEntries = getelementptr inbounds %"class.llvh::DenseMap", ptr %this1, i32 0, i32 1
  store i32 %0, ptr %NumEntries, align 8
  ret void
}

; Function Attrs: mustprogress nounwind uwtable
define linkonce_odr hidden noundef ptr @_ZNK4llvh8DenseMapIPN6hermes9ScopeDescES3_NS_12DenseMapInfoIS3_EENS_6detail12DenseMapPairIS3_S3_EEE10getBucketsEv(ptr noundef nonnull align 8 dereferenceable(20) %this) #0 comdat align 2 {
entry:
  %this.addr = alloca ptr, align 8
  store ptr %this, ptr %this.addr, align 8
  %this1 = load ptr, ptr %this.addr, align 8
  %Buckets = getelementptr inbounds %"class.llvh::DenseMap", ptr %this1, i32 0, i32 0
  %0 = load ptr, ptr %Buckets, align 8
  ret ptr %0
}

; Function Attrs: mustprogress nounwind uwtable
define linkonce_odr hidden noundef ptr @_ZN4llvh12DenseMapInfoIPN6hermes9ScopeDescEE15getTombstoneKeyEv() #0 comdat align 2 {
entry:
  %Val = alloca i64, align 8
  store i64 -2, ptr %Val, align 8
  %0 = load i64, ptr %Val, align 8
  %shl = shl i64 %0, 3
  store i64 %shl, ptr %Val, align 8
  %1 = load i64, ptr %Val, align 8
  %2 = inttoptr i64 %1 to ptr
  ret ptr %2
}

; Function Attrs: mustprogress nounwind uwtable
define linkonce_odr hidden noundef ptr @_ZN4llvh12DenseMapInfoIPN6hermes9ScopeDescEE11getEmptyKeyEv() #0 comdat align 2 {
entry:
  %Val = alloca i64, align 8
  store i64 -1, ptr %Val, align 8
  %0 = load i64, ptr %Val, align 8
  %shl = shl i64 %0, 3
  store i64 %shl, ptr %Val, align 8
  %1 = load i64, ptr %Val, align 8
  %2 = inttoptr i64 %1 to ptr
  ret ptr %2
}

; Function Attrs: mustprogress nounwind uwtable
define linkonce_odr hidden noundef i32 @_ZNK4llvh8DenseMapIPN6hermes9ScopeDescES3_NS_12DenseMapInfoIS3_EENS_6detail12DenseMapPairIS3_S3_EEE13getNumBucketsEv(ptr noundef nonnull align 8 dereferenceable(20) %this) #0 comdat align 2 {
entry:
  %this.addr = alloca ptr, align 8
  store ptr %this, ptr %this.addr, align 8
  %this1 = load ptr, ptr %this.addr, align 8
  %NumBuckets = getelementptr inbounds %"class.llvh::DenseMap", ptr %this1, i32 0, i32 3
  %0 = load i32, ptr %NumBuckets, align 8
  ret i32 %0
}

; Function Attrs: mustprogress nounwind uwtable
define linkonce_odr hidden noundef i32 @_ZNK4llvh8DenseMapIPN6hermes9ScopeDescES3_NS_12DenseMapInfoIS3_EENS_6detail12DenseMapPairIS3_S3_EEE16getNumTombstonesEv(ptr noundef nonnull align 8 dereferenceable(20) %this) #0 comdat align 2 {
entry:
  %this.addr = alloca ptr, align 8
  store ptr %this, ptr %this.addr, align 8
  %this1 = load ptr, ptr %this.addr, align 8
  %NumTombstones = getelementptr inbounds %"class.llvh::DenseMap", ptr %this1, i32 0, i32 2
  %0 = load i32, ptr %NumTombstones, align 4
  ret i32 %0
}

; Function Attrs: mustprogress nounwind uwtable
define linkonce_odr hidden noundef i32 @_ZNK4llvh8DenseMapIPN6hermes9ScopeDescES3_NS_12DenseMapInfoIS3_EENS_6detail12DenseMapPairIS3_S3_EEE13getNumEntriesEv(ptr noundef nonnull align 8 dereferenceable(20) %this) #0 comdat align 2 {
entry:
  %this.addr = alloca ptr, align 8
  store ptr %this, ptr %this.addr, align 8
  %this1 = load ptr, ptr %this.addr, align 8
  %NumEntries = getelementptr inbounds %"class.llvh::DenseMap", ptr %this1, i32 0, i32 1
  %0 = load i32, ptr %NumEntries, align 8
  ret i32 %0
}

; Function Attrs: mustprogress nounwind uwtable
define linkonce_odr hidden void @_ZN4llvh12DenseMapBaseINS_8DenseMapIPN6hermes9ScopeDescES4_NS_12DenseMapInfoIS4_EENS_6detail12DenseMapPairIS4_S4_EEEES4_S4_S6_S9_E16setNumTombstonesEj(ptr noundef nonnull align 1 dereferenceable(1) %this, i32 noundef %Num) #0 comdat align 2 {
entry:
  %this.addr = alloca ptr, align 8
  %Num.addr = alloca i32, align 4
  store ptr %this, ptr %this.addr, align 8
  store i32 %Num, ptr %Num.addr, align 4
  %this1 = load ptr, ptr %this.addr, align 8
  %0 = load i32, ptr %Num.addr, align 4
  call void @_ZN4llvh8DenseMapIPN6hermes9ScopeDescES3_NS_12DenseMapInfoIS3_EENS_6detail12DenseMapPairIS3_S3_EEE16setNumTombstonesEj(ptr noundef nonnull align 8 dereferenceable(20) %this1, i32 noundef %0)
  ret void
}

; Function Attrs: mustprogress nounwind uwtable
define linkonce_odr hidden void @_ZN4llvh12DenseMapBaseINS_8DenseMapIPN6hermes9ScopeDescES4_NS_12DenseMapInfoIS4_EENS_6detail12DenseMapPairIS4_S4_EEEES4_S4_S6_S9_E13setNumEntriesEj(ptr noundef nonnull align 1 dereferenceable(1) %this, i32 noundef %Num) #0 comdat align 2 {
entry:
  %this.addr = alloca ptr, align 8
  %Num.addr = alloca i32, align 4
  store ptr %this, ptr %this.addr, align 8
  store i32 %Num, ptr %Num.addr, align 4
  %this1 = load ptr, ptr %this.addr, align 8
  %0 = load i32, ptr %Num.addr, align 4
  call void @_ZN4llvh8DenseMapIPN6hermes9ScopeDescES3_NS_12DenseMapInfoIS3_EENS_6detail12DenseMapPairIS3_S3_EEE13setNumEntriesEj(ptr noundef nonnull align 8 dereferenceable(20) %this1, i32 noundef %0)
  ret void
}

; Function Attrs: mustprogress nounwind uwtable
define linkonce_odr hidden noundef nonnull align 8 dereferenceable(8) ptr @_ZN4llvh6detail12DenseMapPairIPN6hermes9ScopeDescES4_E8getFirstEv(ptr noundef nonnull align 8 dereferenceable(16) %this) #0 comdat align 2 {
entry:
  %this.addr = alloca ptr, align 8
  store ptr %this, ptr %this.addr, align 8
  %this1 = load ptr, ptr %this.addr, align 8
  %first = getelementptr inbounds %"struct.std::pair", ptr %this1, i32 0, i32 0
  ret ptr %first
}

; Function Attrs: mustprogress nounwind uwtable
define linkonce_odr hidden noundef ptr @_ZN4llvh12DenseMapBaseINS_8DenseMapIPN6hermes9ScopeDescES4_NS_12DenseMapInfoIS4_EENS_6detail12DenseMapPairIS4_S4_EEEES4_S4_S6_S9_E13getBucketsEndEv(ptr noundef nonnull align 1 dereferenceable(1) %this) #0 comdat align 2 {
entry:
  %this.addr = alloca ptr, align 8
  store ptr %this, ptr %this.addr, align 8
  %this1 = load ptr, ptr %this.addr, align 8
  %call = call noundef ptr @_ZN4llvh12DenseMapBaseINS_8DenseMapIPN6hermes9ScopeDescES4_NS_12DenseMapInfoIS4_EENS_6detail12DenseMapPairIS4_S4_EEEES4_S4_S6_S9_E10getBucketsEv(ptr noundef nonnull align 1 dereferenceable(1) %this1)
  %call2 = call noundef i32 @_ZNK4llvh12DenseMapBaseINS_8DenseMapIPN6hermes9ScopeDescES4_NS_12DenseMapInfoIS4_EENS_6detail12DenseMapPairIS4_S4_EEEES4_S4_S6_S9_E13getNumBucketsEv(ptr noundef nonnull align 1 dereferenceable(1) %this1)
  %idx.ext = zext i32 %call2 to i64
  %add.ptr = getelementptr inbounds %"struct.llvh::detail::DenseMapPair", ptr %call, i64 %idx.ext
  ret ptr %add.ptr
}

; Function Attrs: mustprogress nounwind uwtable
define linkonce_odr hidden noundef ptr @_ZN4llvh12DenseMapBaseINS_8DenseMapIPN6hermes9ScopeDescES4_NS_12DenseMapInfoIS4_EENS_6detail12DenseMapPairIS4_S4_EEEES4_S4_S6_S9_E10getBucketsEv(ptr noundef nonnull align 1 dereferenceable(1) %this) #0 comdat align 2 {
entry:
  %this.addr = alloca ptr, align 8
  store ptr %this, ptr %this.addr, align 8
  %this1 = load ptr, ptr %this.addr, align 8
  %call = call noundef ptr @_ZNK4llvh8DenseMapIPN6hermes9ScopeDescES3_NS_12DenseMapInfoIS3_EENS_6detail12DenseMapPairIS3_S3_EEE10getBucketsEv(ptr noundef nonnull align 8 dereferenceable(20) %this1)
  ret ptr %call
}

; Function Attrs: mustprogress nounwind uwtable
define linkonce_odr hidden noundef ptr @_ZN4llvh12DenseMapBaseINS_8DenseMapIPN6hermes9ScopeDescES4_NS_12DenseMapInfoIS4_EENS_6detail12DenseMapPairIS4_S4_EEEES4_S4_S6_S9_E15getTombstoneKeyEv() #0 comdat align 2 {
entry:
  %call = call noundef ptr @_ZN4llvh12DenseMapInfoIPN6hermes9ScopeDescEE15getTombstoneKeyEv()
  ret ptr %call
}

; Function Attrs: mustprogress nounwind uwtable
define linkonce_odr hidden noundef ptr @_ZN4llvh12DenseMapBaseINS_8DenseMapIPN6hermes9ScopeDescES4_NS_12DenseMapInfoIS4_EENS_6detail12DenseMapPairIS4_S4_EEEES4_S4_S6_S9_E11getEmptyKeyEv() #0 comdat align 2 {
entry:
  %call = call noundef ptr @_ZN4llvh12DenseMapInfoIPN6hermes9ScopeDescEE11getEmptyKeyEv()
  ret ptr %call
}

; Function Attrs: mustprogress nounwind uwtable
define linkonce_odr hidden void @_ZN4llvh12DenseMapBaseINS_8DenseMapIPN6hermes9ScopeDescES4_NS_12DenseMapInfoIS4_EENS_6detail12DenseMapPairIS4_S4_EEEES4_S4_S6_S9_E16shrink_and_clearEv(ptr noundef nonnull align 1 dereferenceable(1) %this) #0 comdat align 2 {
entry:
  %this.addr = alloca ptr, align 8
  store ptr %this, ptr %this.addr, align 8
  %this1 = load ptr, ptr %this.addr, align 8
  call void @_ZN4llvh8DenseMapIPN6hermes9ScopeDescES3_NS_12DenseMapInfoIS3_EENS_6detail12DenseMapPairIS3_S3_EEE16shrink_and_clearEv(ptr noundef nonnull align 8 dereferenceable(20) %this1)
  ret void
}

; Function Attrs: mustprogress nounwind uwtable
define linkonce_odr hidden noundef i32 @_ZNK4llvh12DenseMapBaseINS_8DenseMapIPN6hermes9ScopeDescES4_NS_12DenseMapInfoIS4_EENS_6detail12DenseMapPairIS4_S4_EEEES4_S4_S6_S9_E13getNumBucketsEv(ptr noundef nonnull align 1 dereferenceable(1) %this) #0 comdat align 2 {
entry:
  %this.addr = alloca ptr, align 8
  store ptr %this, ptr %this.addr, align 8
  %this1 = load ptr, ptr %this.addr, align 8
  %call = call noundef i32 @_ZNK4llvh8DenseMapIPN6hermes9ScopeDescES3_NS_12DenseMapInfoIS3_EENS_6detail12DenseMapPairIS3_S3_EEE13getNumBucketsEv(ptr noundef nonnull align 8 dereferenceable(20) %this1)
  ret i32 %call
}

; Function Attrs: mustprogress nounwind uwtable
define linkonce_odr hidden noundef i32 @_ZNK4llvh12DenseMapBaseINS_8DenseMapIPN6hermes9ScopeDescES4_NS_12DenseMapInfoIS4_EENS_6detail12DenseMapPairIS4_S4_EEEES4_S4_S6_S9_E16getNumTombstonesEv(ptr noundef nonnull align 1 dereferenceable(1) %this) #0 comdat align 2 {
entry:
  %this.addr = alloca ptr, align 8
  store ptr %this, ptr %this.addr, align 8
  %this1 = load ptr, ptr %this.addr, align 8
  %call = call noundef i32 @_ZNK4llvh8DenseMapIPN6hermes9ScopeDescES3_NS_12DenseMapInfoIS3_EENS_6detail12DenseMapPairIS3_S3_EEE16getNumTombstonesEv(ptr noundef nonnull align 8 dereferenceable(20) %this1)
  ret i32 %call
}

; Function Attrs: mustprogress nounwind uwtable
define linkonce_odr hidden noundef i32 @_ZNK4llvh12DenseMapBaseINS_8DenseMapIPN6hermes9ScopeDescES4_NS_12DenseMapInfoIS4_EENS_6detail12DenseMapPairIS4_S4_EEEES4_S4_S6_S9_E13getNumEntriesEv(ptr noundef nonnull align 1 dereferenceable(1) %this) #0 comdat align 2 {
entry:
  %this.addr = alloca ptr, align 8
  store ptr %this, ptr %this.addr, align 8
  %this1 = load ptr, ptr %this.addr, align 8
  %call = call noundef i32 @_ZNK4llvh8DenseMapIPN6hermes9ScopeDescES3_NS_12DenseMapInfoIS3_EENS_6detail12DenseMapPairIS3_S3_EEE13getNumEntriesEv(ptr noundef nonnull align 8 dereferenceable(20) %this1)
  ret i32 %call
}

; Function Attrs: mustprogress nounwind uwtable
define linkonce_odr hidden void @_ZN4llvh14DebugEpochBase14incrementEpochEv(ptr noundef nonnull align 1 dereferenceable(1) %this) #0 comdat align 2 {
entry:
  %this.addr = alloca ptr, align 8
  store ptr %this, ptr %this.addr, align 8
  ret void
}

; Function Attrs: mustprogress nounwind uwtable
define linkonce_odr hidden noundef zeroext i1 @_ZNK4llvh12DenseMapBaseINS_8DenseMapIPN6hermes9ScopeDescES4_NS_12DenseMapInfoIS4_EENS_6detail12DenseMapPairIS4_S4_EEEES4_S4_S6_S9_E5emptyEv(ptr noundef nonnull align 1 dereferenceable(1) %this) #0 comdat align 2 {
entry:
  %this.addr = alloca ptr, align 8
  store ptr %this, ptr %this.addr, align 8
  %this1 = load ptr, ptr %this.addr, align 8
  %call = call noundef i32 @_ZNK4llvh12DenseMapBaseINS_8DenseMapIPN6hermes9ScopeDescES4_NS_12DenseMapInfoIS4_EENS_6detail12DenseMapPairIS4_S4_EEEES4_S4_S6_S9_E13getNumEntriesEv(ptr noundef nonnull align 1 dereferenceable(1) %this1)
  %cmp = icmp eq i32 %call, 0
  ret i1 %cmp
}

; Function Attrs: mustprogress nounwind uwtable
define linkonce_odr hidden noundef ptr @_ZNK6hermes8Function20getFunctionScopeDescEv(ptr noundef nonnull align 8 dereferenceable(304) %this) #0 comdat align 2 {
entry:
  %this.addr = alloca ptr, align 8
  store ptr %this, ptr %this.addr, align 8
  %this1 = load ptr, ptr %this.addr, align 8
  %scopeDesc_ = getelementptr inbounds %"class.hermes::Function", ptr %this1, i32 0, i32 4
  %0 = load ptr, ptr %scopeDesc_, align 8
  ret ptr %0
}

; Function Attrs: mustprogress nounwind uwtable
define linkonce_odr hidden void @_ZN4llvh12DenseMapBaseINS_8DenseMapIPN6hermes9ScopeDescES4_NS_12DenseMapInfoIS4_EENS_6detail12DenseMapPairIS4_S4_EEEES4_S4_S6_S9_E5clearEv(ptr noundef nonnull align 1 dereferenceable(1) %this) #0 comdat align 2 {
entry:
  %this.addr = alloca ptr, align 8
  %EmptyKey = alloca ptr, align 8
  %TombstoneKey = alloca ptr, align 8
  %P = alloca ptr, align 8
  %E = alloca ptr, align 8
  store ptr %this, ptr %this.addr, align 8
  %this1 = load ptr, ptr %this.addr, align 8
  call void @_ZN4llvh14DebugEpochBase14incrementEpochEv(ptr noundef nonnull align 1 dereferenceable(1) %this1)
  %call = call noundef i32 @_ZNK4llvh12DenseMapBaseINS_8DenseMapIPN6hermes9ScopeDescES4_NS_12DenseMapInfoIS4_EENS_6detail12DenseMapPairIS4_S4_EEEES4_S4_S6_S9_E13getNumEntriesEv(ptr noundef nonnull align 1 dereferenceable(1) %this1)
  %cmp = icmp eq i32 %call, 0
  br i1 %cmp, label %land.lhs.true, label %if.end

land.lhs.true:                                    ; preds = %entry
  %call2 = call noundef i32 @_ZNK4llvh12DenseMapBaseINS_8DenseMapIPN6hermes9ScopeDescES4_NS_12DenseMapInfoIS4_EENS_6detail12DenseMapPairIS4_S4_EEEES4_S4_S6_S9_E16getNumTombstonesEv(ptr noundef nonnull align 1 dereferenceable(1) %this1)
  %cmp3 = icmp eq i32 %call2, 0
  br i1 %cmp3, label %if.then, label %if.end

if.then:                                          ; preds = %land.lhs.true
  br label %return

if.end:                                           ; preds = %land.lhs.true, %entry
  %call4 = call noundef i32 @_ZNK4llvh12DenseMapBaseINS_8DenseMapIPN6hermes9ScopeDescES4_NS_12DenseMapInfoIS4_EENS_6detail12DenseMapPairIS4_S4_EEEES4_S4_S6_S9_E13getNumEntriesEv(ptr noundef nonnull align 1 dereferenceable(1) %this1)
  %mul = mul i32 %call4, 4
  %call5 = call noundef i32 @_ZNK4llvh12DenseMapBaseINS_8DenseMapIPN6hermes9ScopeDescES4_NS_12DenseMapInfoIS4_EENS_6detail12DenseMapPairIS4_S4_EEEES4_S4_S6_S9_E13getNumBucketsEv(ptr noundef nonnull align 1 dereferenceable(1) %this1)
  %cmp6 = icmp ult i32 %mul, %call5
  br i1 %cmp6, label %land.lhs.true7, label %if.end11

land.lhs.true7:                                   ; preds = %if.end
  %call8 = call noundef i32 @_ZNK4llvh12DenseMapBaseINS_8DenseMapIPN6hermes9ScopeDescES4_NS_12DenseMapInfoIS4_EENS_6detail12DenseMapPairIS4_S4_EEEES4_S4_S6_S9_E13getNumBucketsEv(ptr noundef nonnull align 1 dereferenceable(1) %this1)
  %cmp9 = icmp ugt i32 %call8, 64
  br i1 %cmp9, label %if.then10, label %if.end11

if.then10:                                        ; preds = %land.lhs.true7
  call void @_ZN4llvh12DenseMapBaseINS_8DenseMapIPN6hermes9ScopeDescES4_NS_12DenseMapInfoIS4_EENS_6detail12DenseMapPairIS4_S4_EEEES4_S4_S6_S9_E16shrink_and_clearEv(ptr noundef nonnull align 1 dereferenceable(1) %this1)
  br label %return

if.end11:                                         ; preds = %land.lhs.true7, %if.end
  %call12 = call noundef ptr @_ZN4llvh12DenseMapBaseINS_8DenseMapIPN6hermes9ScopeDescES4_NS_12DenseMapInfoIS4_EENS_6detail12DenseMapPairIS4_S4_EEEES4_S4_S6_S9_E11getEmptyKeyEv()
  store ptr %call12, ptr %EmptyKey, align 8
  %call13 = call noundef ptr @_ZN4llvh12DenseMapBaseINS_8DenseMapIPN6hermes9ScopeDescES4_NS_12DenseMapInfoIS4_EENS_6detail12DenseMapPairIS4_S4_EEEES4_S4_S6_S9_E15getTombstoneKeyEv()
  store ptr %call13, ptr %TombstoneKey, align 8
  %call14 = call noundef ptr @_ZN4llvh12DenseMapBaseINS_8DenseMapIPN6hermes9ScopeDescES4_NS_12DenseMapInfoIS4_EENS_6detail12DenseMapPairIS4_S4_EEEES4_S4_S6_S9_E10getBucketsEv(ptr noundef nonnull align 1 dereferenceable(1) %this1)
  store ptr %call14, ptr %P, align 8
  %call15 = call noundef ptr @_ZN4llvh12DenseMapBaseINS_8DenseMapIPN6hermes9ScopeDescES4_NS_12DenseMapInfoIS4_EENS_6detail12DenseMapPairIS4_S4_EEEES4_S4_S6_S9_E13getBucketsEndEv(ptr noundef nonnull align 1 dereferenceable(1) %this1)
  store ptr %call15, ptr %E, align 8
  br label %for.cond

for.cond:                                         ; preds = %for.inc, %if.end11
  %0 = load ptr, ptr %P, align 8
  %1 = load ptr, ptr %E, align 8
  %cmp16 = icmp ne ptr %0, %1
  br i1 %cmp16, label %for.body, label %for.end

for.body:                                         ; preds = %for.cond
  %2 = load ptr, ptr %EmptyKey, align 8
  %3 = load ptr, ptr %P, align 8
  %call17 = call noundef nonnull align 8 dereferenceable(8) ptr @_ZN4llvh6detail12DenseMapPairIPN6hermes9ScopeDescES4_E8getFirstEv(ptr noundef nonnull align 8 dereferenceable(16) %3)
  store ptr %2, ptr %call17, align 8
  br label %for.inc

for.inc:                                          ; preds = %for.body
  %4 = load ptr, ptr %P, align 8
  %incdec.ptr = getelementptr inbounds %"struct.llvh::detail::DenseMapPair", ptr %4, i32 1
  store ptr %incdec.ptr, ptr %P, align 8
  br label %for.cond, !llvm.loop !8

for.end:                                          ; preds = %for.cond
  call void @_ZN4llvh12DenseMapBaseINS_8DenseMapIPN6hermes9ScopeDescES4_NS_12DenseMapInfoIS4_EENS_6detail12DenseMapPairIS4_S4_EEEES4_S4_S6_S9_E13setNumEntriesEj(ptr noundef nonnull align 1 dereferenceable(1) %this1, i32 noundef 0)
  call void @_ZN4llvh12DenseMapBaseINS_8DenseMapIPN6hermes9ScopeDescES4_NS_12DenseMapInfoIS4_EENS_6detail12DenseMapPairIS4_S4_EEEES4_S4_S6_S9_E16setNumTombstonesEj(ptr noundef nonnull align 1 dereferenceable(1) %this1, i32 noundef 0)
  br label %return

return:                                           ; preds = %for.end, %if.then10, %if.then
  ret void
}

; Function Attrs: mustprogress nounwind uwtable
define hidden noundef zeroext i1 @_ZN6hermes11ScopeMerger13runOnFunctionEPNS_8FunctionE(ptr noundef nonnull align 8 dereferenceable(56) %this, ptr noundef %F) unnamed_addr #0 align 2 {
entry:
  %this.addr = alloca ptr, align 8
  %F.addr = alloca ptr, align 8
  store ptr %this, ptr %this.addr, align 8
  store ptr %F, ptr %F.addr, align 8
  %this1 = load ptr, ptr %this.addr, align 8
  %mergedMap_ = getelementptr inbounds %"class.hermes::ScopeMerger", ptr %this1, i32 0, i32 1
  call void @_ZN4llvh12DenseMapBaseINS_8DenseMapIPN6hermes9ScopeDescES4_NS_12DenseMapInfoIS4_EENS_6detail12DenseMapPairIS4_S4_EEEES4_S4_S6_S9_E5clearEv(ptr noundef nonnull align 1 dereferenceable(1) %mergedMap_)
  %0 = load ptr, ptr %F.addr, align 8
  %1 = load ptr, ptr %F.addr, align 8
  %call = call noundef ptr @_ZNK6hermes8Function20getFunctionScopeDescEv(ptr noundef nonnull align 8 dereferenceable(304) %1)
  %call2 = call noundef i32 @_ZN6hermes11ScopeMerger13optimizeScopeEPNS_8FunctionEPNS_9ScopeDescE(ptr noundef nonnull align 8 dereferenceable(56) %this1, ptr noundef %0, ptr noundef %call)
  %2 = load ptr, ptr %F.addr, align 8
  call void @_ZN6hermes11ScopeMerger23updateSourceLevelScopesEPNS_8FunctionE(ptr noundef nonnull align 8 dereferenceable(56) %this1, ptr noundef %2)
  %mergedMap_3 = getelementptr inbounds %"class.hermes::ScopeMerger", ptr %this1, i32 0, i32 1
  %call4 = call noundef zeroext i1 @_ZNK4llvh12DenseMapBaseINS_8DenseMapIPN6hermes9ScopeDescES4_NS_12DenseMapInfoIS4_EENS_6detail12DenseMapPairIS4_S4_EEEES4_S4_S6_S9_E5emptyEv(ptr noundef nonnull align 1 dereferenceable(1) %mergedMap_3)
  %lnot = xor i1 %call4, true
  ret i1 %lnot
}