; Function Attrs: mustprogress nounwind uwtable
define hidden noundef zeroext i1 @_ZN6hermes11ScopeMerger13runOnFunctionEPNS_8FunctionE(ptr noundef nonnull align 8 dereferenceable(56) %this, ptr noundef %F) unnamed_addr #0 align 2 {
entry:
  %mergedMap_ = getelementptr inbounds i8, ptr %this, i64 32
  %NumEntries.i.i.i = getelementptr inbounds i8, ptr %this, i64 40
  %0 = load i32, ptr %NumEntries.i.i.i, align 8
  %cmp.i = icmp eq i32 %0, 0
  %NumTombstones.i.i.i = getelementptr inbounds i8, ptr %this, i64 44
  %1 = load i32, ptr %NumTombstones.i.i.i, align 4
  %cmp3.i = icmp eq i32 %1, 0
  %or.cond = select i1 %cmp.i, i1 %cmp3.i, i1 false
  br i1 %or.cond, label %_ZN4llvh12DenseMapBaseINS_8DenseMapIPN6hermes9ScopeDescES4_NS_12DenseMapInfoIS4_EENS_6detail12DenseMapPairIS4_S4_EEEES4_S4_S6_S9_E5clearEv.exit, label %if.end.i

if.end.i:                                         ; preds = %entry
  %mul.i = shl i32 %0, 2
  %NumBuckets.i.i.i = getelementptr inbounds i8, ptr %this, i64 48
  %2 = load i32, ptr %NumBuckets.i.i.i, align 8
  %cmp6.i = icmp ult i32 %mul.i, %2
  %cmp9.i = icmp ugt i32 %2, 64
  %or.cond.i = and i1 %cmp6.i, %cmp9.i
  br i1 %or.cond.i, label %if.then10.i, label %if.end11.i

if.then10.i:                                      ; preds = %if.end.i
  tail call void @_ZN4llvh8DenseMapIPN6hermes9ScopeDescES3_NS_12DenseMapInfoIS3_EENS_6detail12DenseMapPairIS3_S3_EEE16shrink_and_clearEv(ptr noundef nonnull align 8 dereferenceable(20) %mergedMap_)
  br label %_ZN4llvh12DenseMapBaseINS_8DenseMapIPN6hermes9ScopeDescES4_NS_12DenseMapInfoIS4_EENS_6detail12DenseMapPairIS4_S4_EEEES4_S4_S6_S9_E5clearEv.exit

if.end11.i:                                       ; preds = %if.end.i
  %3 = load ptr, ptr %mergedMap_, align 8
  %idx.ext.i.i = zext i32 %2 to i64
  %add.ptr.i.i = getelementptr inbounds %"struct.llvh::detail::DenseMapPair", ptr %3, i64 %idx.ext.i.i
  %cmp16.not7.i = icmp eq i32 %2, 0
  br i1 %cmp16.not7.i, label %for.end.i, label %for.body.i

for.body.i:                                       ; preds = %if.end11.i, %for.body.i
  %P.08.i = phi ptr [ %incdec.ptr.i, %for.body.i ], [ %3, %if.end11.i ]
  store ptr inttoptr (i64 -8 to ptr), ptr %P.08.i, align 8
  %incdec.ptr.i = getelementptr inbounds i8, ptr %P.08.i, i64 16
  %cmp16.not.i = icmp eq ptr %incdec.ptr.i, %add.ptr.i.i
  br i1 %cmp16.not.i, label %for.end.i, label %for.body.i, !llvm.loop !11

for.end.i:                                        ; preds = %for.body.i, %if.end11.i
  store i32 0, ptr %NumEntries.i.i.i, align 8
  store i32 0, ptr %NumTombstones.i.i.i, align 4
  br label %_ZN4llvh12DenseMapBaseINS_8DenseMapIPN6hermes9ScopeDescES4_NS_12DenseMapInfoIS4_EENS_6detail12DenseMapPairIS4_S4_EEEES4_S4_S6_S9_E5clearEv.exit

_ZN4llvh12DenseMapBaseINS_8DenseMapIPN6hermes9ScopeDescES4_NS_12DenseMapInfoIS4_EENS_6detail12DenseMapPairIS4_S4_EEEES4_S4_S6_S9_E5clearEv.exit: ; preds = %entry, %if.then10.i, %for.end.i
  %scopeDesc_.i = getelementptr inbounds i8, ptr %F, i64 72
  %4 = load ptr, ptr %scopeDesc_.i, align 8
  %call2 = tail call noundef i32 @_ZN6hermes11ScopeMerger13optimizeScopeEPNS_8FunctionEPNS_9ScopeDescE(ptr noundef nonnull align 8 dereferenceable(56) %this, ptr noundef nonnull %F, ptr noundef %4), !range !6
  tail call void @_ZN6hermes11ScopeMerger23updateSourceLevelScopesEPNS_8FunctionE(ptr noundef nonnull align 8 dereferenceable(56) %this, ptr noundef nonnull %F)
  %5 = load i32, ptr %NumEntries.i.i.i, align 8
  %cmp.i4 = icmp ne i32 %5, 0
  ret i1 %cmp.i4
}